target datalayout = "e-m:e-p270:32:32-p271:32:32-p272:64:64-i64:64-i128:128-f80:128-n8:16:32:64-S128"
target triple = "x86_64-pc-linux-gnu"

%struct.pmix_class_t = type { ptr, ptr, ptr, ptr, i32, i32, ptr, ptr, i64 }
%struct.pmix_list_t = type { %struct.pmix_object_t, %struct.pmix_list_item_t, i64 }
%struct.pmix_object_t = type { %union.pthread_mutex_t, ptr, i32, %struct.pmix_tma }
%union.pthread_mutex_t = type { %struct.__pthread_mutex_s }
%struct.__pthread_mutex_s = type { i32, i32, i32, i32, i32, i16, i16, %struct.__pthread_internal_list }
%struct.__pthread_internal_list = type { ptr, ptr }
%struct.pmix_tma = type { ptr, ptr, ptr, ptr, ptr, ptr, ptr, ptr }
%struct.pmix_list_item_t = type { %struct.pmix_object_t, ptr, ptr, i32 }
%struct.pmix_globals_t = type { i32, %struct.pmix_proc, %struct.pmix_value, %struct.pmix_value, ptr, i32, i32, ptr, i32, i32, i32, i32, i32, ptr, ptr, i32, %struct.pmix_events_t, i8, i8, %struct.timeval, %struct.pmix_list_t, %struct.pmix_pointer_array_t, i32, i32, %struct.pmix_hotel_t, i8, %struct.pmix_list_t, i8, i8, i8, i64, %struct.pmix_list_t, %struct.pmix_topology_t, %struct.pmix_cpuset_t, i8, i8, %struct.pmix_iof_flags_t, %struct.pmix_keyindex_t }
%struct.pmix_proc = type { [256 x i8], i32 }
%struct.pmix_value = type { i16, %union.anon }
%union.anon = type { %struct.pmix_envar_t }
%struct.pmix_envar_t = type { ptr, ptr, i8 }
%struct.pmix_events_t = type { %struct.pmix_object_t, i64, ptr, ptr, %struct.pmix_list_t, %struct.pmix_list_t, %struct.pmix_list_t, %struct.pmix_list_t }
%struct.timeval = type { i64, i64 }
%struct.pmix_pointer_array_t = type { %struct.pmix_object_t, i32, i32, i32, i32, i32, ptr, ptr }
%struct.pmix_hotel_t = type { %struct.pmix_object_t, i32, ptr, %struct.timeval, ptr, ptr, ptr, ptr, i32 }
%struct.pmix_topology_t = type { ptr, ptr }
%struct.pmix_cpuset_t = type { ptr, ptr }
%struct.pmix_iof_flags_t = type { i8, i8, i8, i8, i8, i8, i8, ptr, ptr, i8, i8, i8, i8, i8, i8 }
%struct.pmix_keyindex_t = type { %struct.pmix_object_t, ptr, i32 }
%struct.pmix_lock_t = type { i32, %struct.pmix_mutex_t, %union.pthread_cond_t, i8 }
%struct.pmix_mutex_t = type { %struct.pmix_object_t, %union.pthread_mutex_t }
%union.pthread_cond_t = type { %struct.__pthread_cond_s }
%struct.__pthread_cond_s = type { %union.__atomic_wide_counter, %union.__atomic_wide_counter, [2 x i32], [2 x i32], i32, i32, [2 x i32] }
%union.__atomic_wide_counter = type { i64 }
%struct.pmix_output_desc_t = type { i8, i8, i32, i8, i32, ptr, ptr, i32, ptr, i32, i8, i8, i8, i8, ptr, i32, i32 }
%struct.event = type { %struct.event_callback, %union.anon.2, i32, ptr, %union.anon.4, i16, i16, %struct.timeval }
%struct.event_callback = type { %struct.anon.0, i16, i8, i8, %union.anon.1, ptr }
%struct.anon.0 = type { ptr, ptr }
%union.anon.1 = type { ptr }
%union.anon.2 = type { %struct.anon.3 }
%struct.anon.3 = type { ptr, ptr }
%union.anon.4 = type { %struct.anon.5 }
%struct.anon.5 = type { %struct.anon.6, %struct.timeval }
%struct.anon.6 = type { ptr, ptr }
%struct.pmix_shift_caddy_t = type { %struct.pmix_object_t, %struct.event, %struct.pmix_lock_t, i32, ptr, i64, i32, %struct.pmix_name_t, ptr, ptr, ptr, i64, ptr, ptr, i64, ptr, i64, ptr, ptr, ptr, ptr, ptr, ptr, i8, %union.anon.10, ptr, i64 }
%struct.pmix_name_t = type { ptr, i32 }
%union.anon.10 = type { ptr }

@pmix_globals = external global %struct.pmix_globals_t, align 8
@pmix_output_info = external global [0 x %struct.pmix_output_desc_t], align 8
@.str.30 = private unnamed_addr constant [21 x i8] c"pthread_mutex_lock()\00", align 1
@.str.343 = private unnamed_addr constant [28 x i8] c"pmix:query release callback\00", align 1

; Function Attrs: inlinehint nounwind uwtable
define internal void @pmix_tma_free(ptr noundef %0, ptr noundef %1) #3 {
  %3 = alloca ptr, align 8
  %4 = alloca ptr, align 8
  store ptr %0, ptr %3, align 8, !tbaa !55
  store ptr %1, ptr %4, align 8, !tbaa !42
  %5 = load ptr, ptr %3, align 8, !tbaa !55
  %6 = icmp ne ptr null, %5
  br i1 %6, label %7, label %13

7:                                                ; preds = %2
  %8 = load ptr, ptr %3, align 8, !tbaa !55
  %9 = getelementptr inbounds nuw %struct.pmix_tma, ptr %8, i32 0, i32 5
  %10 = load ptr, ptr %9, align 8, !tbaa !94
  %11 = load ptr, ptr %3, align 8, !tbaa !55
  %12 = load ptr, ptr %4, align 8, !tbaa !42
  call void %10(ptr noundef %11, ptr noundef %12)
  br label %15

13:                                               ; preds = %2
  %14 = load ptr, ptr %4, align 8, !tbaa !42
  call void @free(ptr noundef %14) #13
  br label %15

15:                                               ; preds = %13, %7
  ret void
}

; Function Attrs: inlinehint nounwind uwtable
define internal void @pmix_obj_run_destructors(ptr noundef %0) #3 {
  %2 = alloca ptr, align 8
  %3 = alloca ptr, align 8
  store ptr %0, ptr %2, align 8, !tbaa !53
  call void @llvm.lifetime.start.p0(i64 8, ptr %3) #13
  %4 = load ptr, ptr %2, align 8, !tbaa !53
  %5 = getelementptr inbounds nuw %struct.pmix_object_t, ptr %4, i32 0, i32 1
  %6 = load ptr, ptr %5, align 8, !tbaa !17
  %7 = getelementptr inbounds nuw %struct.pmix_class_t, ptr %6, i32 0, i32 7
  %8 = load ptr, ptr %7, align 8, !tbaa !92
  store ptr %8, ptr %3, align 8, !tbaa !42
  br label %9

9:                                                ; preds = %13, %1
  %10 = load ptr, ptr %3, align 8, !tbaa !42
  %11 = load ptr, ptr %10, align 8, !tbaa !42
  %12 = icmp ne ptr null, %11
  br i1 %12, label %13, label %19

13:                                               ; preds = %9
  %14 = load ptr, ptr %3, align 8, !tbaa !42
  %15 = load ptr, ptr %14, align 8, !tbaa !42
  %16 = load ptr, ptr %2, align 8, !tbaa !53
  call void %15(ptr noundef %16)
  %17 = load ptr, ptr %3, align 8, !tbaa !42
  %18 = getelementptr inbounds nuw ptr, ptr %17, i32 1
  store ptr %18, ptr %3, align 8, !tbaa !42
  br label %9, !llvm.loop !93

19:                                               ; preds = %9
  call void @llvm.lifetime.end.p0(i64 8, ptr %3) #13
  ret void
}

; Function Attrs: alwaysinline nounwind uwtable
define internal i32 @pmix_obj_update(ptr noundef %0, i32 noundef %1) #5 {
  %3 = alloca ptr, align 8
  %4 = alloca i32, align 4
  %5 = alloca i32, align 4
  store ptr %0, ptr %3, align 8, !tbaa !53
  store i32 %1, ptr %4, align 4, !tbaa !9
  call void @llvm.lifetime.start.p0(i64 4, ptr %5) #13
  %6 = load ptr, ptr %3, align 8, !tbaa !53
  %7 = getelementptr inbounds nuw %struct.pmix_object_t, ptr %6, i32 0, i32 0
  %8 = call i32 @pthread_mutex_lock(ptr noundef %7) #13
  store i32 %8, ptr %5, align 4, !tbaa !9
  %9 = load i32, ptr %5, align 4, !tbaa !9
  %10 = icmp eq i32 %9, 35
  br i1 %10, label %11, label %14

11:                                               ; preds = %2
  %12 = load i32, ptr %5, align 4, !tbaa !9
  %13 = call ptr @__errno_location() #16
  store i32 %12, ptr %13, align 4, !tbaa !9
  call void @perror(ptr noundef @.str.30)
  call void @abort() #17
  unreachable

14:                                               ; preds = %2
  %15 = load i32, ptr %4, align 4, !tbaa !9
  %16 = load ptr, ptr %3, align 8, !tbaa !53
  %17 = getelementptr inbounds nuw %struct.pmix_object_t, ptr %16, i32 0, i32 2
  %18 = load i32, ptr %17, align 8, !tbaa !20
  %19 = add nsw i32 %18, %15
  store i32 %19, ptr %17, align 8, !tbaa !20
  store i32 %19, ptr %5, align 4, !tbaa !9
  %20 = load ptr, ptr %3, align 8, !tbaa !53
  %21 = getelementptr inbounds nuw %struct.pmix_object_t, ptr %20, i32 0, i32 0
  %22 = call i32 @pthread_mutex_unlock(ptr noundef %21) #13
  %23 = load i32, ptr %5, align 4, !tbaa !9
  call void @llvm.lifetime.end.p0(i64 4, ptr %5) #13
  ret i32 %23
}

; Function Attrs: nounwind uwtable
define internal void @relcbfunc(ptr noundef %0) #0 {
  %2 = alloca ptr, align 8
  %3 = alloca ptr, align 8
  %4 = alloca ptr, align 8
  store ptr %0, ptr %2, align 8, !tbaa !42
  call void @llvm.lifetime.start.p0(i64 8, ptr %3) #13
  %5 = load ptr, ptr %2, align 8, !tbaa !42
  store ptr %5, ptr %3, align 8, !tbaa !42
  %6 = load i32, ptr getelementptr inbounds nuw (%struct.pmix_globals_t, ptr @pmix_globals, i32 0, i32 15), align 8, !tbaa !166
  %7 = icmp sge i32 %6, 0
  br i1 %7, label %8, label %20

8:                                                ; preds = %1
  %9 = load i32, ptr getelementptr inbounds nuw (%struct.pmix_globals_t, ptr @pmix_globals, i32 0, i32 15), align 8, !tbaa !166
  %10 = icmp slt i32 %9, 64
  br i1 %10, label %11, label %20

11:                                               ; preds = %8
  %12 = load i32, ptr getelementptr inbounds nuw (%struct.pmix_globals_t, ptr @pmix_globals, i32 0, i32 15), align 8, !tbaa !166
  %13 = sext i32 %12 to i64
  %14 = getelementptr inbounds [0 x %struct.pmix_output_desc_t], ptr @pmix_output_info, i64 0, i64 %13
  %15 = getelementptr inbounds nuw %struct.pmix_output_desc_t, ptr %14, i32 0, i32 2
  %16 = load i32, ptr %15, align 4, !tbaa !148
  %17 = icmp sge i32 %16, 2
  br i1 %17, label %18, label %20

18:                                               ; preds = %11
  %19 = load i32, ptr getelementptr inbounds nuw (%struct.pmix_globals_t, ptr @pmix_globals, i32 0, i32 15), align 8, !tbaa !166
  call void (i32, ptr, ...) @pmix_output(i32 noundef %19, ptr noundef @.str.343)
  br label %20

20:                                               ; preds = %18, %11, %8, %1
  %21 = load ptr, ptr %3, align 8, !tbaa !42
  %22 = getelementptr inbounds nuw %struct.pmix_shift_caddy_t, ptr %21, i32 0, i32 13
  %23 = load ptr, ptr %22, align 8, !tbaa !195
  %24 = icmp ne ptr null, %23
  br i1 %24, label %25, label %37

25:                                               ; preds = %20
  br label %26

26:                                               ; preds = %25
  %27 = load ptr, ptr %3, align 8, !tbaa !42
  %28 = getelementptr inbounds nuw %struct.pmix_shift_caddy_t, ptr %27, i32 0, i32 13
  %29 = load ptr, ptr %28, align 8, !tbaa !195
  %30 = load ptr, ptr %3, align 8, !tbaa !42
  %31 = getelementptr inbounds nuw %struct.pmix_shift_caddy_t, ptr %30, i32 0, i32 14
  %32 = load i64, ptr %31, align 8, !tbaa !194
  call void @PMIx_Info_free(ptr noundef %29, i64 noundef %32)
  %33 = load ptr, ptr %3, align 8, !tbaa !42
  %34 = getelementptr inbounds nuw %struct.pmix_shift_caddy_t, ptr %33, i32 0, i32 13
  store ptr null, ptr %34, align 8, !tbaa !195
  br label %35

35:                                               ; preds = %26
  br label %36

36:                                               ; preds = %35
  br label %37

37:                                               ; preds = %36, %20
  br label %38

38:                                               ; preds = %37
  call void @llvm.lifetime.start.p0(i64 8, ptr %4) #13
  %39 = load ptr, ptr %3, align 8, !tbaa !42
  store ptr %39, ptr %4, align 8, !tbaa !53
  %40 = load ptr, ptr %4, align 8, !tbaa !53
  %41 = call i32 @pmix_obj_update(ptr noundef %40, i32 noundef -1)
  %42 = icmp eq i32 0, %41
  br i1 %42, label %43, label %57

43:                                               ; preds = %38
  %44 = load ptr, ptr %4, align 8, !tbaa !53
  call void @pmix_obj_run_destructors(ptr noundef %44)
  %45 = load ptr, ptr %4, align 8, !tbaa !53
  %46 = getelementptr inbounds nuw %struct.pmix_object_t, ptr %45, i32 0, i32 3
  %47 = getelementptr inbounds nuw %struct.pmix_tma, ptr %46, i32 0, i32 5
  %48 = load ptr, ptr %47, align 8, !tbaa !62
  %49 = icmp ne ptr null, %48
  br i1 %49, label %50, label %54

50:                                               ; preds = %43
  %51 = load ptr, ptr %4, align 8, !tbaa !53
  %52 = getelementptr inbounds nuw %struct.pmix_object_t, ptr %51, i32 0, i32 3
  %53 = load ptr, ptr %3, align 8, !tbaa !42
  call void @pmix_tma_free(ptr noundef %52, ptr noundef %53)
  br label %56

54:                                               ; preds = %43
  %55 = load ptr, ptr %3, align 8, !tbaa !42
  call void @free(ptr noundef %55) #13
  br label %56

56:                                               ; preds = %54, %50
  store ptr null, ptr %3, align 8, !tbaa !42
  br label %57

57:                                               ; preds = %56, %38
  call void @llvm.lifetime.end.p0(i64 8, ptr %4) #13
  br label %58

58:                                               ; preds = %57
  br label %59

59:                                               ; preds = %58
  call void @llvm.lifetime.end.p0(i64 8, ptr %3) #13
  ret void
}